
 Start         Length     Name                   Class
 0001:00000000 00009010H .text                   CODE
 0002:00000000 00000058H .data                   DATA
 0002:00000058 000000B9H .bss                    BSS


Detailed map of segments

 0001:00000000 000000F6 C=CODE     S=.text    G=(none)   M=System   ACBP=A9
 0001:000000F8 000001EC C=CODE     S=.text    G=(none)   M=SysInit  ACBP=A9
 0001:000002E4 0000000E C=CODE     S=.text    G=(none)   M=SysConst ACBP=A9
 0001:000002F4 0000000E C=CODE     S=.text    G=(none)   M=Types    ACBP=A9
 0001:00000304 00000038 C=CODE     S=.text    G=(none)   M=Windows  ACBP=A9
 0001:0000033C 0000007E C=CODE     S=.text    G=(none)   M=SysUtils ACBP=A9
 0001:000003BC 00000038 C=CODE     S=.text    G=(none)   M=Messages ACBP=A9
 0001:000003F4 0000000E C=CODE     S=.text    G=(none)   M=ActiveX  ACBP=A9
 0001:00000404 0000000E C=CODE     S=.text    G=(none)   M=VarUtils ACBP=A9
 0001:00000414 0000005E C=CODE     S=.text    G=(none)   M=Variants ACBP=A9
 0001:00000474 0000000E C=CODE     S=.text    G=(none)   M=RTLConsts ACBP=A9
 0001:00000484 0000000E C=CODE     S=.text    G=(none)   M=TypInfo  ACBP=A9
 0001:00000494 0000002E C=CODE     S=.text    G=(none)   M=Classes  ACBP=A9
 0001:000004C4 000000A6 C=CODE     S=.text    G=(none)   M=DB       ACBP=A9
 0001:0000056C 0000000E C=CODE     S=.text    G=(none)   M=FMTBcd   ACBP=A9
 0001:0000057C 0000000E C=CODE     S=.text    G=(none)   M=Math     ACBP=A9
 0001:0000058C 0000000E C=CODE     S=.text    G=(none)   M=DBConsts ACBP=A9
 0001:0000059C 0000000E C=CODE     S=.text    G=(none)   M=SqlTimSt ACBP=A9
 0001:000005AC 0000000E C=CODE     S=.text    G=(none)   M=DateUtils ACBP=A9
 0001:000005BC 0000000E C=CODE     S=.text    G=(none)   M=MaskUtils ACBP=A9
 0001:000005CC 0000000E C=CODE     S=.text    G=(none)   M=ComConst ACBP=A9
 0001:000005DC 0000000E C=CODE     S=.text    G=(none)   M=ComObj   ACBP=A9
 0001:000005EC 00000056 C=CODE     S=.text    G=(none)   M=IBCustomDataSet ACBP=A9
 0001:00000644 0000000E C=CODE     S=.text    G=(none)   M=IBBlob   ACBP=A9
 0001:00000654 0000000E C=CODE     S=.text    G=(none)   M=IBUtils  ACBP=A9
 0001:00000664 0000000E C=CODE     S=.text    G=(none)   M=DBCommon ACBP=A9
 0001:00000674 0000002E C=CODE     S=.text    G=(none)   M=IBDatabase ACBP=A9
 0001:000006A4 0000000E C=CODE     S=.text    G=(none)   M=IB       ACBP=A9
 0001:000006B4 0000000E C=CODE     S=.text    G=(none)   M=IBXConst ACBP=A9
 0001:000006C4 0000000E C=CODE     S=.text    G=(none)   M=IBExternals ACBP=A9
 0001:000006D4 0000000E C=CODE     S=.text    G=(none)   M=IBHeader ACBP=A9
 0001:000006E4 0000000E C=CODE     S=.text    G=(none)   M=IBIntf   ACBP=A9
 0001:000006F4 0000000E C=CODE     S=.text    G=(none)   M=IBInstallHeader ACBP=A9
 0001:00000704 0000005E C=CODE     S=.text    G=(none)   M=IBSQL    ACBP=A9
 0001:00000764 0000000E C=CODE     S=.text    G=(none)   M=IBErrorCodes ACBP=A9
 0001:00000774 0000000E C=CODE     S=.text    G=(none)   M=IBSQLMonitor ACBP=A9
 0001:00000784 0000000E C=CODE     S=.text    G=(none)   M=IBServices ACBP=A9
 0001:00000794 0000000E C=CODE     S=.text    G=(none)   M=Contnrs  ACBP=A9
 0001:000007A4 0000000E C=CODE     S=.text    G=(none)   M=IBDatabaseInfo ACBP=A9
 0001:000007B4 0000000E C=CODE     S=.text    G=(none)   M=IBTable  ACBP=A9
 0001:000007C4 00000038 C=CODE     S=.text    G=(none)   M=UrlMon   ACBP=A9
 0001:000007FC 00000038 C=CODE     S=.text    G=(none)   M=WinInet  ACBP=A9
 0001:00000834 00000038 C=CODE     S=.text    G=(none)   M=RegStr   ACBP=A9
 0001:0000086C 00000038 C=CODE     S=.text    G=(none)   M=ShellAPI ACBP=A9
 0001:000008A4 00000038 C=CODE     S=.text    G=(none)   M=CommCtrl ACBP=A9
 0001:000008DC 00000038 C=CODE     S=.text    G=(none)   M=ShlObj   ACBP=A9
 0001:00000914 0000000E C=CODE     S=.text    G=(none)   M=Consts   ACBP=A9
 0001:00000924 0000000E C=CODE     S=.text    G=(none)   M=Graphics ACBP=A9
 0001:00000934 0000000E C=CODE     S=.text    G=(none)   M=HelpIntfs ACBP=A9
 0001:00000944 0000000E C=CODE     S=.text    G=(none)   M=MultiMon ACBP=A9
 0001:00000954 00000038 C=CODE     S=.text    G=(none)   M=Imm      ACBP=A9
 0001:0000098C 0000000E C=CODE     S=.text    G=(none)   M=SyncObjs ACBP=A9
 0001:0000099C 0000000E C=CODE     S=.text    G=(none)   M=UxTheme  ACBP=A9
 0001:000009AC 0000000E C=CODE     S=.text    G=(none)   M=WinHelpViewer ACBP=A9
 0001:000009BC 00000038 C=CODE     S=.text    G=(none)   M=WinSpool ACBP=A9
 0001:000009F4 0000000E C=CODE     S=.text    G=(none)   M=Printers ACBP=A9
 0001:00000A04 00000038 C=CODE     S=.text    G=(none)   M=CommDlg  ACBP=A9
 0001:00000A3C 00000038 C=CODE     S=.text    G=(none)   M=Dlgs     ACBP=A9
 0001:00000A74 0000000E C=CODE     S=.text    G=(none)   M=StrUtils ACBP=A9
 0001:00000A84 0000000E C=CODE     S=.text    G=(none)   M=Clipbrd  ACBP=A9
 0001:00000A94 0000000E C=CODE     S=.text    G=(none)   M=StdActns ACBP=A9
 0001:00000AA4 0000000E C=CODE     S=.text    G=(none)   M=FlatSB   ACBP=A9
 0001:00000AB4 0000000E C=CODE     S=.text    G=(none)   M=ExtCtrls ACBP=A9
 0001:00000AC4 0000000E C=CODE     S=.text    G=(none)   M=ToolWin  ACBP=A9
 0001:00000AD4 00000038 C=CODE     S=.text    G=(none)   M=RichEdit ACBP=A9
 0001:00000B0C 0000000E C=CODE     S=.text    G=(none)   M=IniFiles ACBP=A9
 0001:00000B1C 0000000E C=CODE     S=.text    G=(none)   M=Registry ACBP=A9
 0001:00000B2C 0000000E C=CODE     S=.text    G=(none)   M=Buttons  ACBP=A9
 0001:00000B3C 0000000E C=CODE     S=.text    G=(none)   M=ExtDlgs  ACBP=A9
 0001:00000B4C 0000000E C=CODE     S=.text    G=(none)   M=Mapi     ACBP=A9
 0001:00000B5C 0000000E C=CODE     S=.text    G=(none)   M=ExtActns ACBP=A9
 0001:00000B6C 0000000E C=CODE     S=.text    G=(none)   M=ComStrs  ACBP=A9
 0001:00000B7C 0000000E C=CODE     S=.text    G=(none)   M=ListActns ACBP=A9
 0001:00000B8C 0000001E C=CODE     S=.text    G=(none)   M=ComCtrls ACBP=A9
 0001:00000BAC 0000000E C=CODE     S=.text    G=(none)   M=Themes   ACBP=A9
 0001:00000BBC 0000000E C=CODE     S=.text    G=(none)   M=Menus    ACBP=A9
 0001:00000BCC 000000F6 C=CODE     S=.text    G=(none)   M=Controls ACBP=A9
 0001:00000CC4 00000136 C=CODE     S=.text    G=(none)   M=Forms    ACBP=A9
 0001:00000DFC 0000000E C=CODE     S=.text    G=(none)   M=ImgList  ACBP=A9
 0001:00000E0C 0000000E C=CODE     S=.text    G=(none)   M=ActnList ACBP=A9
 0001:00000E1C 0000000E C=CODE     S=.text    G=(none)   M=StdCtrls ACBP=A9
 0001:00000E2C 0000000E C=CODE     S=.text    G=(none)   M=Dialogs  ACBP=A9
 0001:00000E3C 00000026 C=CODE     S=.text    G=(none)   M=IBQuery  ACBP=A9
 0001:00000E64 0000000E C=CODE     S=.text    G=(none)   M=DBClient ACBP=A9
 0001:00000E74 0000000E C=CODE     S=.text    G=(none)   M=Midas    ACBP=A9
 0001:00000E84 0000000E C=CODE     S=.text    G=(none)   M=DSIntf   ACBP=A9
 0001:00000E94 0000000E C=CODE     S=.text    G=(none)   M=MidConst ACBP=A9
 0001:00000EA4 0000000E C=CODE     S=.text    G=(none)   M=Provider ACBP=A9
 0001:00000EB4 0000000E C=CODE     S=.text    G=(none)   M=DataBkr  ACBP=A9
 0001:00000EC4 0000000E C=CODE     S=.text    G=(none)   M=CHILKATUPLOADLib_TLB ACBP=A9
 0001:00000ED4 0000000E C=CODE     S=.text    G=(none)   M=StdVCL   ACBP=A9
 0001:00000EE4 0000000E C=CODE     S=.text    G=(none)   M=OleConst ACBP=A9
 0001:00000EF4 0000000E C=CODE     S=.text    G=(none)   M=OleServer ACBP=A9
 0001:00000F04 0000000E C=CODE     S=.text    G=(none)   M=AxCtrls  ACBP=A9
 0001:00000F14 0000000E C=CODE     S=.text    G=(none)   M=OleCtrls ACBP=A9
 0001:00000F24 0000000E C=CODE     S=.text    G=(none)   M=CHILKATHTTPLib_TLB ACBP=A9
 0001:00000F34 00000038 C=CODE     S=.text    G=(none)   M=uConstanteScript ACBP=A9
 0001:00000F6C 0000001E C=CODE     S=.text    G=(none)   M=UGeralSQL ACBP=A9
 0001:00000F8C 0000000E C=CODE     S=.text    G=(none)   M=UGeral   ACBP=A9
 0001:00000F9C 00000026 C=CODE     S=.text    G=(none)   M=UDM      ACBP=A9
 0001:00000FC4 00000038 C=CODE     S=.text    G=(none)   M=uScripts_55 ACBP=A9
 0001:00000FFC 000036A4 C=CODE     S=.text    G=(none)   M=uScripts ACBP=A9
 0001:000046A0 0000000E C=CODE     S=.text    G=(none)   M=Grids    ACBP=A9
 0001:000046B0 0000000E C=CODE     S=.text    G=(none)   M=Mask     ACBP=A9
 0001:000046C0 0000000E C=CODE     S=.text    G=(none)   M=DBGrids  ACBP=A9
 0001:000046D0 0000000E C=CODE     S=.text    G=(none)   M=DBCtrls  ACBP=A9
 0001:000046E0 0000000E C=CODE     S=.text    G=(none)   M=VDBConsts ACBP=A9
 0001:000046F0 0000000E C=CODE     S=.text    G=(none)   M=DBPWDlg  ACBP=A9
 0001:00004700 0000000E C=CODE     S=.text    G=(none)   M=DBLogDlg ACBP=A9
 0001:00004710 0000000E C=CODE     S=.text    G=(none)   M=UDMDIG   ACBP=A9
 0001:00004720 0000000E C=CODE     S=.text    G=(none)   M=UDMGERAL ACBP=A9
 0001:00004730 0000000E C=CODE     S=.text    G=(none)   M=uFuncoesWeb ACBP=A9
 0001:00004740 0000000E C=CODE     S=.text    G=(none)   M=ULogSQL  ACBP=A9
 0001:00004750 000044F8 C=CODE     S=.text    G=(none)   M=uMetaDados ACBP=A9
 0001:00008C48 000003C5 C=CODE     S=.text    G=(none)   M=SISScript ACBP=A9
 0002:00000000 0000002C C=DATA     S=.data    G=DGROUP   M=SysInit  ACBP=A9
 0002:00001000 00000010 C=BSS      S=.bss     G=DGROUP   M=SysInit  ACBP=A9
 0002:00001010 00000004 C=BSS      S=.bss     G=DGROUP   M=Windows  ACBP=A9
 0002:00001014 00000004 C=BSS      S=.bss     G=DGROUP   M=Messages ACBP=A9
 0002:00001018 00000004 C=BSS      S=.bss     G=DGROUP   M=UrlMon   ACBP=A9
 0002:0000101C 00000004 C=BSS      S=.bss     G=DGROUP   M=WinInet  ACBP=A9
 0002:00001020 00000004 C=BSS      S=.bss     G=DGROUP   M=RegStr   ACBP=A9
 0002:00001024 00000004 C=BSS      S=.bss     G=DGROUP   M=ShellAPI ACBP=A9
 0002:00001028 00000004 C=BSS      S=.bss     G=DGROUP   M=CommCtrl ACBP=A9
 0002:0000102C 00000004 C=BSS      S=.bss     G=DGROUP   M=ShlObj   ACBP=A9
 0002:00001030 00000004 C=BSS      S=.bss     G=DGROUP   M=Imm      ACBP=A9
 0002:00001034 00000004 C=BSS      S=.bss     G=DGROUP   M=WinSpool ACBP=A9
 0002:00001038 00000004 C=BSS      S=.bss     G=DGROUP   M=CommDlg  ACBP=A9
 0002:0000103C 00000004 C=BSS      S=.bss     G=DGROUP   M=Dlgs     ACBP=A9
 0002:00001040 00000004 C=BSS      S=.bss     G=DGROUP   M=RichEdit ACBP=A9
 0002:00001044 00000004 C=BSS      S=.bss     G=DGROUP   M=uConstanteScript ACBP=A9
 0002:00001048 00000004 C=BSS      S=.bss     G=DGROUP   M=uScripts_55 ACBP=A9
 0002:0000104C 0000004C C=BSS      S=.bss     G=DGROUP   M=uScripts ACBP=A9
 0002:00001098 00000020 C=BSS      S=.bss     G=DGROUP   M=uMetaDados ACBP=A9


  Address         Publics by Name

 0002:0000102C       .1
 0002:00001018       .1
 0002:0000101C       .1
 0002:00001020       .1
 0002:00001048       .1
 0002:00001008       .1
 0002:00001044       .1
 0002:00001040       .1
 0002:0000103C       .1
 0002:00001024       .1
 0002:00001038       .1
 0002:00001014       .1
 0002:00001030       .1
 0002:00001028       .1
 0002:000010B4       .2
 0002:00001034       .3
 0002:00001010       .3
 0002:00001094       .4
 0001:00008FE8       @GetPackageInfoTable
 0001:00000230       @InitPkg
 0001:00008FF0       @PackageLoad
 0001:00000294       @PackageLoad
 0001:00008FFC       @PackageUnload
 0001:000002A0       @PackageUnload
 0001:00000130       AllocTlsBuffer
 0001:000008D4       CommCtrl
 0001:00000A34       CommDlg
 0002:00001054       cPROCCAMPOCHAVE
 0002:00001058       cPROCCAMPOUND
 0002:00001064       cPROCDIGFIS
 0002:0000105C       cPROCEXECMETA
 0002:0000106C       cProcIncluiAuditoria
 0002:00001068       cPROCREQNOT
 0002:00001060       cPROCTRIGEDI
 0002:00001070       cPROGDEPARA
 0001:00000A6C       Dlgs
 0001:00007C34       Exec
 0001:00007640       Exec
 0001:00005F58       Exec
 0001:000001DC       ExitProcessTLS
 0001:000001B4       ExitThreadTLS
 0001:00000834       Finalization
 0001:00000FC4       Finalization
 0001:00000A3C       Finalization
 0001:0000086C       Finalization
 0001:00004634       Finalization
 0001:00008BFC       Finalization
 0001:000008A4       Finalization
 0001:00000F34       Finalization
 0001:000008DC       Finalization
 0001:00000AD4       Finalization
 0001:00000A04       Finalization
 0001:00000954       Finalization
 0001:000007C4       Finalization
 0001:000002AC       Finalization
 0001:000009BC       Finalization
 0001:000003BC       Finalization
 0001:00000304       Finalization
 0001:000007FC       Finalization
 0001:000000F8       FreeLibrary
 0002:00001098       frmMetaDados
 0001:0000013C       GetTlsSize
 0001:00006344       Grava
 0002:00001004       HInstance
 0002:0000109C       id
 0001:00000984       Imm
 0001:000010C0       IncluiVersao
 0001:00001284       InicializaScript
 0001:00000200       InitializeModule
 0001:00000188       InitProcessTLS
 0001:00000144       InitThreadTLS
 0001:00001138       Insere
 0001:00000100       LocalAlloc
 0001:00000108       LocalFree
 0001:000003EC       Messages
 0002:00000004       Module
 0002:00001000       ModuleIsLib
 0002:00001001       ModuleIsPackage
 0002:000010A4       mParams
 0002:00001074       mParams
 0001:00000864       RegStr
 0001:00000B04       RichEdit
 0002:00001050       Script
 0001:0000089C       ShellAPI
 0001:0000090C       ShlObj
 0001:00009008       SISScript
 0001:000002DC       SysInit
 0001:000053A4       TfrmMetaDados.btExecutarClick
 0001:00005D84       TfrmMetaDados.btLogClick
 0001:00005CF8       TfrmMetaDados.btTodosClick
 0001:00005F00       TfrmMetaDados.Button1Click
 0001:00005F2C       TfrmMetaDados.Button2Click
 0001:00005BA8       TfrmMetaDados.CarregaVersao
 0001:00005C90       TfrmMetaDados.cbVersaoChange
 0001:00004BA8       TfrmMetaDados.CopiarDePara
 0001:00008274       TfrmMetaDados.CriaTrigerEdi
 0001:000061E4       TfrmMetaDados.ExecutaMeta
 0001:00005C7C       TfrmMetaDados.FormCreate
 0001:00007AD8       TfrmMetaDados.IBQAfterScroll
 0001:00005BF4       TfrmMetaDados.lsScriptsClick
 0001:00004E54       TfrmMetaDados.MontaDataSet
 0001:00008394       TfrmMetaDados.ProcDigFis
 0001:00008634       TfrmMetaDados.ProcIncluiAuditoria
 0001:00006534       TfrmMetaDados.RecriaCamposChave
 0001:00007998       TfrmMetaDados.RecriaCamposUnd
 0001:0000887C       TfrmMetaDados.RequisitaNotificacao
 0002:000010A0       tipo
 0001:00000110       TlsAlloc
 0002:0000100C       tlsBuffer
 0001:00000118       TlsFree
 0001:00000120       TlsGetValue
 0002:00000000       TlsIndex
 0002:FFBF5000       TlsLast
 0002:0000001C       TlsProc
 0001:00000128       TlsSetValue
 0001:00000F64       uConstanteScript
 0001:00008C40       uMetaDados
 0001:0000020C       UninitializeModule
 0001:000007F4       UrlMon
 0001:00004698       uScripts
 0001:00000FF4       uScripts_55
 0002:00001084       vEmpty
 0002:0000104C       Versao
 0001:00000334       Windows
 0001:0000082C       WinInet
 0001:000009EC       WinSpool


  Address         Publics by Value

 0002:FFBF5000       TlsLast
 0001:000000F8       FreeLibrary
 0001:00000100       LocalAlloc
 0001:00000108       LocalFree
 0001:00000110       TlsAlloc
 0001:00000118       TlsFree
 0001:00000120       TlsGetValue
 0001:00000128       TlsSetValue
 0001:00000130       AllocTlsBuffer
 0001:0000013C       GetTlsSize
 0001:00000144       InitThreadTLS
 0001:00000188       InitProcessTLS
 0001:000001B4       ExitThreadTLS
 0001:000001DC       ExitProcessTLS
 0001:00000200       InitializeModule
 0001:0000020C       UninitializeModule
 0001:00000230       @InitPkg
 0001:00000294       @PackageLoad
 0001:000002A0       @PackageUnload
 0001:000002AC       Finalization
 0001:000002DC       SysInit
 0001:00000304       Finalization
 0001:00000334       Windows
 0001:000003BC       Finalization
 0001:000003EC       Messages
 0001:000007C4       Finalization
 0001:000007F4       UrlMon
 0001:000007FC       Finalization
 0001:0000082C       WinInet
 0001:00000834       Finalization
 0001:00000864       RegStr
 0001:0000086C       Finalization
 0001:0000089C       ShellAPI
 0001:000008A4       Finalization
 0001:000008D4       CommCtrl
 0001:000008DC       Finalization
 0001:0000090C       ShlObj
 0001:00000954       Finalization
 0001:00000984       Imm
 0001:000009BC       Finalization
 0001:000009EC       WinSpool
 0001:00000A04       Finalization
 0001:00000A34       CommDlg
 0001:00000A3C       Finalization
 0001:00000A6C       Dlgs
 0001:00000AD4       Finalization
 0001:00000B04       RichEdit
 0001:00000F34       Finalization
 0001:00000F64       uConstanteScript
 0001:00000FC4       Finalization
 0001:00000FF4       uScripts_55
 0001:000010C0       IncluiVersao
 0001:00001138       Insere
 0001:00001284       InicializaScript
 0001:00004634       Finalization
 0001:00004698       uScripts
 0001:00004BA8       TfrmMetaDados.CopiarDePara
 0001:00004E54       TfrmMetaDados.MontaDataSet
 0001:000053A4       TfrmMetaDados.btExecutarClick
 0001:00005BA8       TfrmMetaDados.CarregaVersao
 0001:00005BF4       TfrmMetaDados.lsScriptsClick
 0001:00005C7C       TfrmMetaDados.FormCreate
 0001:00005C90       TfrmMetaDados.cbVersaoChange
 0001:00005CF8       TfrmMetaDados.btTodosClick
 0001:00005D84       TfrmMetaDados.btLogClick
 0001:00005F00       TfrmMetaDados.Button1Click
 0001:00005F2C       TfrmMetaDados.Button2Click
 0001:00005F58       Exec
 0001:000061E4       TfrmMetaDados.ExecutaMeta
 0001:00006344       Grava
 0001:00006534       TfrmMetaDados.RecriaCamposChave
 0001:00007640       Exec
 0001:00007998       TfrmMetaDados.RecriaCamposUnd
 0001:00007AD8       TfrmMetaDados.IBQAfterScroll
 0001:00007C34       Exec
 0001:00008274       TfrmMetaDados.CriaTrigerEdi
 0001:00008394       TfrmMetaDados.ProcDigFis
 0001:00008634       TfrmMetaDados.ProcIncluiAuditoria
 0001:0000887C       TfrmMetaDados.RequisitaNotificacao
 0001:00008BFC       Finalization
 0001:00008C40       uMetaDados
 0001:00008FE8       @GetPackageInfoTable
 0001:00008FF0       @PackageLoad
 0001:00008FFC       @PackageUnload
 0001:00009008       SISScript
 0002:00000000       TlsIndex
 0002:00000004       Module
 0002:0000001C       TlsProc
 0002:00001000       ModuleIsLib
 0002:00001001       ModuleIsPackage
 0002:00001004       HInstance
 0002:00001008       .1
 0002:0000100C       tlsBuffer
 0002:00001010       .3
 0002:00001014       .1
 0002:00001018       .1
 0002:0000101C       .1
 0002:00001020       .1
 0002:00001024       .1
 0002:00001028       .1
 0002:0000102C       .1
 0002:00001030       .1
 0002:00001034       .3
 0002:00001038       .1
 0002:0000103C       .1
 0002:00001040       .1
 0002:00001044       .1
 0002:00001048       .1
 0002:0000104C       Versao
 0002:00001050       Script
 0002:00001054       cPROCCAMPOCHAVE
 0002:00001058       cPROCCAMPOUND
 0002:0000105C       cPROCEXECMETA
 0002:00001060       cPROCTRIGEDI
 0002:00001064       cPROCDIGFIS
 0002:00001068       cPROCREQNOT
 0002:0000106C       cProcIncluiAuditoria
 0002:00001070       cPROGDEPARA
 0002:00001074       mParams
 0002:00001084       vEmpty
 0002:00001094       .4
 0002:00001098       frmMetaDados
 0002:0000109C       id
 0002:000010A0       tipo
 0002:000010A4       mParams
 0002:000010B4       .2


Line numbers for SysInit(SysInit.pas) segment .text

    93 0001:000000F8   102 0001:00000100   105 0001:00000108   108 0001:00000110
   111 0001:00000118   114 0001:00000120   117 0001:00000128   128 0001:00000130
   129 0001:00000138   285 0001:0000013C   286 0001:00000141   293 0001:00000144
   294 0001:00000145   295 0001:0000014C   299 0001:00000150   300 0001:00000163
   301 0001:0000016A   302 0001:0000016E   304 0001:0000017A   305 0001:00000186
   310 0001:00000188   312 0001:00000191   313 0001:0000019B   314 0001:000001A0
   315 0001:000001B0   321 0001:000001B4   323 0001:000001BD   324 0001:000001C6
   325 0001:000001D1   326 0001:000001D5   328 0001:000001DB   332 0001:000001DC
   334 0001:000001E5   335 0001:000001EA   336 0001:000001F3   337 0001:000001FE
   423 0001:00000200   424 0001:0000020A   428 0001:0000020C   429 0001:00000216
   430 0001:00000227   431 0001:0000022D   495 0001:00000230   496 0001:0000023B
   497 0001:00000242   498 0001:00000249   499 0001:0000024E   500 0001:00000256
   501 0001:0000025E   502 0001:00000263   503 0001:0000026C   504 0001:00000275
   505 0001:0000027A   506 0001:00000281   507 0001:00000285   508 0001:0000028A
   509 0001:0000028D   540 0001:00000294   541 0001:0000029E   545 0001:000002A0
   546 0001:000002AA   840 0001:000002DC   840 0001:000002E3

Line numbers for uConstanteScript(uConstanteScript.pas) segment .text

  1441 0001:00000F64  1441 0001:00000F6B

Line numbers for uScripts_55(uScripts_55.pas) segment .text

   373 0001:00000FF4   373 0001:00000FFB

Line numbers for uScripts(..\CADASTRO\uScripts.pas) segment .text

    36 0001:000010C0    37 0001:000010E1    38 0001:000010FD    39 0001:00001105
    40 0001:00001133    46 0001:00001138    47 0001:00001181    48 0001:00001187
    49 0001:00001189    50 0001:000011A2    51 0001:000011C0    52 0001:000011D2
    53 0001:000011E7    54 0001:000011F9    55 0001:00001211    56 0001:00001229
    57 0001:00001241    58 0001:0000127D    59 0001:00001284    60 0001:000012A6
    62 0001:000012AD    63 0001:000012B4    64 0001:000012C7    67 0001:000012D1
    70 0001:000012FF    71 0001:00001306    72 0001:00001319    73 0001:00001323
    76 0001:00001336    79 0001:00001366    80 0001:0000136D    81 0001:00001380
    82 0001:0000138A    85 0001:0000139D    88 0001:000013CD    89 0001:000013D4
    90 0001:000013E7    93 0001:000013F1    94 0001:000013F8    95 0001:0000140B
    97 0001:00001415    99 0001:00001425   101 0001:00001443   102 0001:00001451
   104 0001:0000146F   105 0001:0000147D   107 0001:0000149B   108 0001:000014A9
   110 0001:000014C7   111 0001:000014D5   113 0001:000014F3   114 0001:00001501
   116 0001:0000151F   117 0001:0000152D   119 0001:0000154B   120 0001:00001559
   122 0001:00001577   124 0001:00001585   125 0001:00001595   126 0001:000015A5
   127 0001:000015B5   128 0001:000015C5   129 0001:000015D5   130 0001:000015E5
   131 0001:000015F5   133 0001:00001605   135 0001:00001615   136 0001:0000162B
   137 0001:00001641   138 0001:00001657   139 0001:0000166D   140 0001:00001683
   141 0001:00001699   142 0001:000016AF   144 0001:000016C5   145 0001:000016D5
   146 0001:000016E5   147 0001:000016F5   148 0001:00001705   149 0001:00001715
   150 0001:00001725   151 0001:00001735   153 0001:00001745   155 0001:00001755
   156 0001:00001765   157 0001:00001775   158 0001:00001785   159 0001:00001795
   160 0001:000017A5   161 0001:000017B5   162 0001:000017C5   164 0001:000017D5
   165 0001:000017EB   166 0001:00001801   167 0001:00001817   168 0001:0000182D
   169 0001:00001843   170 0001:00001859   171 0001:0000186F   173 0001:00001885
   174 0001:00001895   175 0001:000018A5   176 0001:000018B5   177 0001:000018C5
   178 0001:000018D5   179 0001:000018E5   180 0001:000018F5   182 0001:00001905
   185 0001:00001915   189 0001:00001945   190 0001:0000194C   191 0001:0000195F
   194 0001:00001998   196 0001:00004698   196 0001:0000469F

Line numbers for uMetaDados(..\CADASTRO\uMetaDados.pas) segment .text

    86 0001:00004BA8    87 0001:00004BE5    88 0001:00004BF9    90 0001:00004C0D
    91 0001:00004C1B    92 0001:00004C29    95 0001:00004C3C    96 0001:00004C4A
    97 0001:00004C58    98 0001:00004C70    97 0001:00004CBD    99 0001:00004CC0
   100 0001:00004CD1   101 0001:00004CDD   102 0001:00004CE3   104 0001:00004CF3
   105 0001:00004D01   107 0001:00004D34   109 0001:00004D36   110 0001:00004D8B
   111 0001:00004D9C    93 0001:00004DAF   115 0001:00004DC5   116 0001:00004DD3
   117 0001:00004E18   123 0001:00004E54   124 0001:00004E88   125 0001:00004E96
   126 0001:00004EA1   127 0001:00004ECC   128 0001:00004ED7   129 0001:00004EE6
   131 0001:00004EFC   132 0001:00004F0C   133 0001:00004F26   134 0001:00004F40
   135 0001:00004F5A   136 0001:00004F62   137 0001:00004F6A   138 0001:00004F72
   140 0001:00004F7A   141 0001:00004F8E   143 0001:00004FA2   144 0001:00004FA9
   145 0001:00004FB8   146 0001:00004FC6   147 0001:00004FD4   148 0001:00004FE2
   150 0001:00004FE9   152 0001:00005000   153 0001:00005015   154 0001:00005020
   156 0001:00005038   158 0001:00005053   160 0001:00005060   161 0001:0000506D
   162 0001:0000507A   164 0001:00005094   150 0001:00005095   169 0001:000050A0
   170 0001:000050B9   171 0001:000050D4   172 0001:000050DF   174 0001:000050EE
   167 0001:00005108   178 0001:00005117   179 0001:0000511E   180 0001:00005157
   181 0001:00005190   183 0001:000051D7   184 0001:000051D9   186 0001:0000525B
   190 0001:000053A4   191 0001:000053C8   192 0001:000053DA   194 0001:000053E8
   196 0001:000053FD   197 0001:0000540B   198 0001:00005443   200 0001:00005481
   202 0001:0000549A   203 0001:000054A8   204 0001:000054F9   205 0001:00005505
   207 0001:00005529   211 0001:00005533   214 0001:00005536   216 0001:00005542
   218 0001:00005553   221 0001:00005587   223 0001:000055AD   224 0001:000055C8
   225 0001:00005609   226 0001:0000564A   230 0001:00005673   231 0001:00005698
   232 0001:000056A6   233 0001:000056B4   234 0001:00005711   236 0001:0000571F
   237 0001:0000576F   238 0001:00005785   239 0001:00005793   240 0001:000057AA
   242 0001:0000580D   244 0001:0000584F   245 0001:0000586D   246 0001:0000587B
   249 0001:00005892   251 0001:00005900   253 0001:00005902   254 0001:0000591B
   255 0001:00005971   258 0001:00005A0E   262 0001:00005BA8   263 0001:00005BAD
   264 0001:00005BBB   265 0001:00005BD0   264 0001:00005BED   266 0001:00005BF0
   270 0001:00005BF4   271 0001:00005BFA   272 0001:00005C0A   273 0001:00005C1A
   274 0001:00005C36   275 0001:00005C46   276 0001:00005C5E   277 0001:00005C77
   280 0001:00005C7C   282 0001:00005C7F   283 0001:00005C84   284 0001:00005C8B
   288 0001:00005C90   289 0001:00005C96   290 0001:00005CA4   291 0001:00005CB4
   292 0001:00005CCC   291 0001:00005CEF   293 0001:00005CF2   297 0001:00005CF8
   298 0001:00005D00   300 0001:00005D1B   301 0001:00005D39   302 0001:00005D44
   303 0001:00005D54   304 0001:00005D5D   305 0001:00005D67   306 0001:00005D70
   298 0001:00005D71   307 0001:00005D74   308 0001:00005D7D   312 0001:00005D84
   313 0001:00005D9F   314 0001:00005DCC   315 0001:00005DDB   316 0001:00005DE6
   317 0001:00005E22   318 0001:00005E31   319 0001:00005E3F   320 0001:00005E4E
   321 0001:00005E5C   322 0001:00005E7B   324 0001:00005E96   326 0001:00005EC8
   329 0001:00005F00   330 0001:00005F03   331 0001:00005F17   332 0001:00005F27
   335 0001:00005F2C   336 0001:00005F2F   337 0001:00005F43   338 0001:00005F53
   343 0001:00005F58   344 0001:00005F75   345 0001:00005F83   346 0001:00005F9C
   347 0001:00005FCE   348 0001:00005FF9   349 0001:0000600A   350 0001:00006036
   351 0001:0000604F   353 0001:000060C5   355 0001:000060C7   356 0001:00006120
   359 0001:00006170   360 0001:000061E4   361 0001:000061FE   362 0001:0000620B
   364 0001:00006241   365 0001:0000624F   366 0001:00006266   367 0001:00006274
   368 0001:00006282   372 0001:00006295   376 0001:000062AC   377 0001:000062B3
   374 0001:000062C1   381 0001:000062D5   384 0001:000062FE   394 0001:00006344
   395 0001:00006375   397 0001:0000638E   398 0001:000063A7   399 0001:000063C5
   400 0001:000063E3   401 0001:00006413   402 0001:0000642E   403 0001:0000644C
   404 0001:0000645D   395 0001:0000645E   405 0001:00006465   406 0001:00006470
   407 0001:0000649D   408 0001:00006534   409 0001:0000655E   410 0001:0000656D
   411 0001:0000657C   412 0001:0000658D   413 0001:0000659E   415 0001:000065AF
   416 0001:000065BD   417 0001:000065CB   418 0001:000065D8   419 0001:000065E5
   420 0001:000065F8   422 0001:00006600   423 0001:0000660D   426 0001:0000661A
   427 0001:00006627   428 0001:00006634   430 0001:00006647   433 0001:00006654
   435 0001:00006674   436 0001:00006681   437 0001:00006689   438 0001:0000669E
   439 0001:000066B3   440 0001:000066BB   443 0001:000066C5   444 0001:000066DA
   445 0001:0000671C   446 0001:00006727   441 0001:0000672F   448 0001:0000673B
   431 0001:00006743   450 0001:00006753   452 0001:00006764   455 0001:00006771
   456 0001:00006791   457 0001:0000679E   458 0001:000067A6   459 0001:000067BB
   460 0001:000067D0   461 0001:000067D8   464 0001:000067E2   465 0001:000067F7
   466 0001:00006839   467 0001:00006844   462 0001:0000684C   469 0001:00006858
   453 0001:00006860   471 0001:00006870   474 0001:00006881   477 0001:0000688E
   479 0001:000068AE   480 0001:000068BB   481 0001:000068E1   482 0001:000068E9
   483 0001:000068FC   484 0001:00006911   485 0001:00006926   486 0001:0000692E
   487 0001:00006936   490 0001:00006940   491 0001:0000696B   492 0001:00006973
   493 0001:0000697F   488 0001:0000698C   495 0001:00006998   497 0001:0000699E
   498 0001:000069AB   500 0001:000069E8   502 0001:000069F3   475 0001:000069FB
   504 0001:00006A0B   506 0001:00006A1C   509 0001:00006A29   510 0001:00006A49
   511 0001:00006A56   512 0001:00006A5E   513 0001:00006A73   514 0001:00006A88
   515 0001:00006A90   518 0001:00006A97   519 0001:00006A98   520 0001:00006AD5
   521 0001:00006ADD   522 0001:00006AF0   523 0001:00006B1C   524 0001:00006B24
   525 0001:00006B2C   526 0001:00006B34   527 0001:00006B3C   528 0001:00006B5C
   531 0001:00006B87   532 0001:00006BBE   533 0001:00006BF5   534 0001:00006BFD
   536 0001:00006C09   537 0001:00006C16   529 0001:00006C23   540 0001:00006C33
   542 0001:00006C39   543 0001:00006C46   544 0001:00006C53   547 0001:00006CA6
   549 0001:00006CB1   516 0001:00006CB9   551 0001:00006CC9   507 0001:00006CD1
   553 0001:00006CE1   555 0001:00006D0D   556 0001:00006D0F   560 0001:00006D4E
   561 0001:00006D56   562 0001:00006D5E   563 0001:00006D66   564 0001:00006D6E
   566 0001:00006DBD   572 0001:00007640   573 0001:00007661   574 0001:0000767A
   575 0001:00007688   576 0001:000076BF   577 0001:000076F6   578 0001:00007707
   579 0001:0000773E   580 0001:0000774F   581 0001:00007797   582 0001:000077B0
   583 0001:000077C1   585 0001:00007813   587 0001:00007815   590 0001:00007890
   591 0001:00007998   592 0001:000079B2   593 0001:000079BF   595 0001:000079F5
   596 0001:00007A03   597 0001:00007A1A   598 0001:00007A28   599 0001:00007A36
   603 0001:00007A49   607 0001:00007A60   608 0001:00007A67   605 0001:00007A75
   612 0001:00007A89   614 0001:00007AB2   618 0001:00007AD8   619 0001:00007AF4
   621 0001:00007B19   623 0001:00007B28   624 0001:00007B4B   626 0001:00007B78
   627 0001:00007B87   629 0001:00007BD7   635 0001:00007C34   636 0001:00007C60
   637 0001:00007C6E   638 0001:00007C7E   639 0001:00007C8F   640 0001:00007CA0
   641 0001:00007CAE   642 0001:00007CE5   643 0001:00007D01   645 0001:00007D13
   647 0001:00007D56   649 0001:00007D64   650 0001:00007D8A   654 0001:00007D9B
   660 0001:00007DF0   663 0001:00007E01   665 0001:00007E13   666 0001:00007E2F
   668 0001:00007E72   670 0001:00007E80   671 0001:00007EA6   675 0001:00007EB7
   682 0001:00007F0A   685 0001:00007F1B   686 0001:00007F34   687 0001:00007F6B
   689 0001:00007F8D   691 0001:00007F8F   694 0001:0000802D   695 0001:00008274
   696 0001:00008294   697 0001:000082A1   699 0001:000082D5   700 0001:000082E2
   701 0001:000082F8   702 0001:00008305   703 0001:00008312   708 0001:00008326
   709 0001:0000832D   706 0001:0000833A   711 0001:0000836D   715 0001:00008394
   716 0001:000083B0   717 0001:000083BE   718 0001:000083D9   719 0001:000083EB
   724 0001:00008408   726 0001:0000842C   727 0001:0000843E   730 0001:00008459
   732 0001:0000848F   733 0001:0000849D   735 0001:000084B8   728 0001:000084D2
   738 0001:000084EC   740 0001:0000850E   741 0001:00008520   743 0001:00008560
   748 0001:00008634   749 0001:00008654   750 0001:00008662   756 0001:0000866F
   757 0001:00008688   760 0001:0000869B   761 0001:000086BA   762 0001:000086ED
   763 0001:000086FB   764 0001:0000870A   766 0001:0000872F   768 0001:0000874A
   758 0001:00008758   771 0001:0000877B   773 0001:000087B3   777 0001:0000887C
   778 0001:00008896   780 0001:000088A4   781 0001:000088B0   782 0001:000088BC
   783 0001:000088C8   784 0001:000088D4   785 0001:000088E0   786 0001:000088EC
   787 0001:000088F8   788 0001:00008904   789 0001:00008910   790 0001:0000891C
   792 0001:00008928   794 0001:0000893E   795 0001:00008950   797 0001:0000897D
   798 0001:0000898F   800 0001:000089A5   801 0001:000089B7   802 0001:000089D1
   803 0001:000089EB   806 0001:00008A00   807 0001:00008A15   808 0001:00008A49
   809 0001:00008A63   810 0001:00008A72   812 0001:00008A88   792 0001:00008A89
   813 0001:00008A92   814 0001:00008ABB   816 0001:00008C40   816 0001:00008C47

Line numbers for SISScript(Q:\lib\Pacotes\SISScript.dpk) segment .text

    42 0001:00009008

Bound resource files

q:\lib\cadastro\uMetaDados.dfm
SISScript.res
SISScript.drf


Program entry point at 0001:00009008
